target datalayout = "e-m:e-p270:32:32-p271:32:32-p272:64:64-i64:64-i128:128-f80:128-n8:16:32:64-S128"
target triple = "x86_64-unknown-linux-gnu"

%struct.aiColor3D = type { float, float, float }
%"class.Assimp::Discreet3DSImporter" = type <{ %"class.Assimp::BaseImporter", ptr, i16, [6 x i8], ptr, ptr, ptr, %struct.aiColor3D, float, %"class.std::__cxx11::basic_string", i8, i8, [6 x i8] }>
%"class.Assimp::BaseImporter" = type { ptr, double, double, %"class.std::__cxx11::basic_string", %"class.std::__exception_ptr::exception_ptr", ptr }
%"class.std::__exception_ptr::exception_ptr" = type { ptr }
%"class.std::__cxx11::basic_string" = type { %"struct.std::__cxx11::basic_string<char>::_Alloc_hider", i64, %union.anon }
%"struct.std::__cxx11::basic_string<char>::_Alloc_hider" = type { ptr }
%union.anon = type { i64, [8 x i8] }
%class.aiMatrix4x4t = type { float, float, float, float, float, float, float, float, float, float, float, float, float, float, float, float }
%struct.aiScene = type { i32, ptr, i32, ptr, i32, ptr, i32, ptr, i32, ptr, i32, ptr, i32, ptr, ptr, %struct.aiString, i32, ptr, ptr }
%struct.aiString = type { i32, [1024 x i8] }
%struct.aiNode = type { %struct.aiString, %class.aiMatrix4x4t, ptr, i32, ptr, i32, ptr, ptr }

; Function Attrs: mustprogress nounwind uwtable
define linkonce_odr hidden void @_ZN12aiMatrix4x4tIfEC2Effffffffffffffff(ptr noundef nonnull align 4 dereferenceable(64) %this, float noundef %_a1, float noundef %_a2, float noundef %_a3, float noundef %_a4, float noundef %_b1, float noundef %_b2, float noundef %_b3, float noundef %_b4, float noundef %_c1, float noundef %_c2, float noundef %_c3, float noundef %_c4, float noundef %_d1, float noundef %_d2, float noundef %_d3, float noundef %_d4) unnamed_addr #0 comdat align 2 {
entry:
  %this.addr = alloca ptr, align 8
  %_a1.addr = alloca float, align 4
  %_a2.addr = alloca float, align 4
  %_a3.addr = alloca float, align 4
  %_a4.addr = alloca float, align 4
  %_b1.addr = alloca float, align 4
  %_b2.addr = alloca float, align 4
  %_b3.addr = alloca float, align 4
  %_b4.addr = alloca float, align 4
  %_c1.addr = alloca float, align 4
  %_c2.addr = alloca float, align 4
  %_c3.addr = alloca float, align 4
  %_c4.addr = alloca float, align 4
  %_d1.addr = alloca float, align 4
  %_d2.addr = alloca float, align 4
  %_d3.addr = alloca float, align 4
  %_d4.addr = alloca float, align 4
  store ptr %this, ptr %this.addr, align 8
  store float %_a1, ptr %_a1.addr, align 4
  store float %_a2, ptr %_a2.addr, align 4
  store float %_a3, ptr %_a3.addr, align 4
  store float %_a4, ptr %_a4.addr, align 4
  store float %_b1, ptr %_b1.addr, align 4
  store float %_b2, ptr %_b2.addr, align 4
  store float %_b3, ptr %_b3.addr, align 4
  store float %_b4, ptr %_b4.addr, align 4
  store float %_c1, ptr %_c1.addr, align 4
  store float %_c2, ptr %_c2.addr, align 4
  store float %_c3, ptr %_c3.addr, align 4
  store float %_c4, ptr %_c4.addr, align 4
  store float %_d1, ptr %_d1.addr, align 4
  store float %_d2, ptr %_d2.addr, align 4
  store float %_d3, ptr %_d3.addr, align 4
  store float %_d4, ptr %_d4.addr, align 4
  %this1 = load ptr, ptr %this.addr, align 8
  %a1 = getelementptr inbounds %class.aiMatrix4x4t, ptr %this1, i32 0, i32 0
  %0 = load float, ptr %_a1.addr, align 4
  store float %0, ptr %a1, align 4
  %a2 = getelementptr inbounds %class.aiMatrix4x4t, ptr %this1, i32 0, i32 1
  %1 = load float, ptr %_a2.addr, align 4
  store float %1, ptr %a2, align 4
  %a3 = getelementptr inbounds %class.aiMatrix4x4t, ptr %this1, i32 0, i32 2
  %2 = load float, ptr %_a3.addr, align 4
  store float %2, ptr %a3, align 4
  %a4 = getelementptr inbounds %class.aiMatrix4x4t, ptr %this1, i32 0, i32 3
  %3 = load float, ptr %_a4.addr, align 4
  store float %3, ptr %a4, align 4
  %b1 = getelementptr inbounds %class.aiMatrix4x4t, ptr %this1, i32 0, i32 4
  %4 = load float, ptr %_b1.addr, align 4
  store float %4, ptr %b1, align 4
  %b2 = getelementptr inbounds %class.aiMatrix4x4t, ptr %this1, i32 0, i32 5
  %5 = load float, ptr %_b2.addr, align 4
  store float %5, ptr %b2, align 4
  %b3 = getelementptr inbounds %class.aiMatrix4x4t, ptr %this1, i32 0, i32 6
  %6 = load float, ptr %_b3.addr, align 4
  store float %6, ptr %b3, align 4
  %b4 = getelementptr inbounds %class.aiMatrix4x4t, ptr %this1, i32 0, i32 7
  %7 = load float, ptr %_b4.addr, align 4
  store float %7, ptr %b4, align 4
  %c1 = getelementptr inbounds %class.aiMatrix4x4t, ptr %this1, i32 0, i32 8
  %8 = load float, ptr %_c1.addr, align 4
  store float %8, ptr %c1, align 4
  %c2 = getelementptr inbounds %class.aiMatrix4x4t, ptr %this1, i32 0, i32 9
  %9 = load float, ptr %_c2.addr, align 4
  store float %9, ptr %c2, align 4
  %c3 = getelementptr inbounds %class.aiMatrix4x4t, ptr %this1, i32 0, i32 10
  %10 = load float, ptr %_c3.addr, align 4
  store float %10, ptr %c3, align 4
  %c4 = getelementptr inbounds %class.aiMatrix4x4t, ptr %this1, i32 0, i32 11
  %11 = load float, ptr %_c4.addr, align 4
  store float %11, ptr %c4, align 4
  %d1 = getelementptr inbounds %class.aiMatrix4x4t, ptr %this1, i32 0, i32 12
  %12 = load float, ptr %_d1.addr, align 4
  store float %12, ptr %d1, align 4
  %d2 = getelementptr inbounds %class.aiMatrix4x4t, ptr %this1, i32 0, i32 13
  %13 = load float, ptr %_d2.addr, align 4
  store float %13, ptr %d2, align 4
  %d3 = getelementptr inbounds %class.aiMatrix4x4t, ptr %this1, i32 0, i32 14
  %14 = load float, ptr %_d3.addr, align 4
  store float %14, ptr %d3, align 4
  %d4 = getelementptr inbounds %class.aiMatrix4x4t, ptr %this1, i32 0, i32 15
  %15 = load float, ptr %_d4.addr, align 4
  store float %15, ptr %d4, align 4
  ret void
}

; Function Attrs: mustprogress uwtable
define hidden void @_ZN6Assimp19Discreet3DSImporter16ApplyMasterScaleEP7aiScene(ptr noundef nonnull align 8 dereferenceable(162) %this, ptr noundef %pScene) #3 align 2 {
entry:
  %this.addr = alloca ptr, align 8
  %pScene.addr = alloca ptr, align 8
  %ref.tmp = alloca %class.aiMatrix4x4t, align 4
  store ptr %this, ptr %this.addr, align 8
  store ptr %pScene, ptr %pScene.addr, align 8
  %this1 = load ptr, ptr %this.addr, align 8
  %mMasterScale = getelementptr inbounds %"class.Assimp::Discreet3DSImporter", ptr %this1, i32 0, i32 8
  %0 = load float, ptr %mMasterScale, align 4
  %tobool = fcmp une float %0, 0.000000e+00
  br i1 %tobool, label %if.else, label %if.then

if.then:                                          ; preds = %entry
  %mMasterScale2 = getelementptr inbounds %"class.Assimp::Discreet3DSImporter", ptr %this1, i32 0, i32 8
  store float 1.000000e+00, ptr %mMasterScale2, align 4
  br label %if.end

if.else:                                          ; preds = %entry
  %mMasterScale3 = getelementptr inbounds %"class.Assimp::Discreet3DSImporter", ptr %this1, i32 0, i32 8
  %1 = load float, ptr %mMasterScale3, align 4
  %div = fdiv float 1.000000e+00, %1
  %mMasterScale4 = getelementptr inbounds %"class.Assimp::Discreet3DSImporter", ptr %this1, i32 0, i32 8
  store float %div, ptr %mMasterScale4, align 4
  br label %if.end

if.end:                                           ; preds = %if.else, %if.then
  %mMasterScale5 = getelementptr inbounds %"class.Assimp::Discreet3DSImporter", ptr %this1, i32 0, i32 8
  %2 = load float, ptr %mMasterScale5, align 4
  %mMasterScale6 = getelementptr inbounds %"class.Assimp::Discreet3DSImporter", ptr %this1, i32 0, i32 8
  %3 = load float, ptr %mMasterScale6, align 4
  %mMasterScale7 = getelementptr inbounds %"class.Assimp::Discreet3DSImporter", ptr %this1, i32 0, i32 8
  %4 = load float, ptr %mMasterScale7, align 4
  call void @_ZN12aiMatrix4x4tIfEC2Effffffffffffffff(ptr noundef nonnull align 4 dereferenceable(64) %ref.tmp, float noundef %2, float noundef 0.000000e+00, float noundef 0.000000e+00, float noundef 0.000000e+00, float noundef 0.000000e+00, float noundef %3, float noundef 0.000000e+00, float noundef 0.000000e+00, float noundef 0.000000e+00, float noundef 0.000000e+00, float noundef %4, float noundef 0.000000e+00, float noundef 0.000000e+00, float noundef 0.000000e+00, float noundef 0.000000e+00, float noundef 1.000000e+00)
  %5 = load ptr, ptr %pScene.addr, align 8
  %mRootNode = getelementptr inbounds %struct.aiScene, ptr %5, i32 0, i32 1
  %6 = load ptr, ptr %mRootNode, align 8
  %mTransformation = getelementptr inbounds %struct.aiNode, ptr %6, i32 0, i32 1
  %call = call noundef nonnull align 4 dereferenceable(64) ptr @_ZN12aiMatrix4x4tIfEmLERKS0_(ptr noundef nonnull align 4 dereferenceable(64) %mTransformation, ptr noundef nonnull align 4 dereferenceable(64) %ref.tmp)
  ret void
}