; Function Attrs: mustprogress uwtable
define hidden void @_ZN6Assimp19Discreet3DSImporter16ApplyMasterScaleEP7aiScene(ptr nocapture noundef nonnull align 8 dereferenceable(162) %this, ptr nocapture noundef readonly %pScene) local_unnamed_addr #2 align 2 {
entry:
  %ref.tmp = alloca %class.aiMatrix4x4t, align 4
  %mMasterScale = getelementptr inbounds i8, ptr %this, i64 124
  %0 = load float, ptr %mMasterScale, align 4
  %tobool = fcmp une float %0, 0.000000e+00
  %div = fdiv float 1.000000e+00, %0
  %storemerge = select i1 %tobool, float %div, float 1.000000e+00
  store float %storemerge, ptr %mMasterScale, align 4
  store float %storemerge, ptr %ref.tmp, align 4
  %a2.i = getelementptr inbounds i8, ptr %ref.tmp, i64 4
  %b2.i = getelementptr inbounds i8, ptr %ref.tmp, i64 20
  call void @llvm.memset.p0.i64(ptr noundef nonnull align 4 dereferenceable(16) %a2.i, i8 0, i64 16, i1 false)
  store float %storemerge, ptr %b2.i, align 4
  %b3.i = getelementptr inbounds i8, ptr %ref.tmp, i64 24
  %c3.i = getelementptr inbounds i8, ptr %ref.tmp, i64 40
  call void @llvm.memset.p0.i64(ptr noundef nonnull align 4 dereferenceable(16) %b3.i, i8 0, i64 16, i1 false)
  store float %storemerge, ptr %c3.i, align 4
  %c4.i = getelementptr inbounds i8, ptr %ref.tmp, i64 44
  %d4.i = getelementptr inbounds i8, ptr %ref.tmp, i64 60
  call void @llvm.memset.p0.i64(ptr noundef nonnull align 4 dereferenceable(16) %c4.i, i8 0, i64 16, i1 false)
  store float 1.000000e+00, ptr %d4.i, align 4
  %mRootNode = getelementptr inbounds i8, ptr %pScene, i64 8
  %1 = load ptr, ptr %mRootNode, align 8
  %mTransformation = getelementptr inbounds i8, ptr %1, i64 1028
  %call = call noundef nonnull align 4 dereferenceable(64) ptr @_ZN12aiMatrix4x4tIfEmLERKS0_(ptr noundef nonnull align 4 dereferenceable(64) %mTransformation, ptr noundef nonnull align 4 dereferenceable(64) %ref.tmp)
  ret void
}